; Function Attrs: mustprogress nounwind uwtable
define dso_local void @_ZN4llvm9MemorySSA6moveToEPNS_14MemoryUseOrDefEPNS_10BasicBlockENS_14ilist_iteratorINS_12ilist_detail12node_optionsINS_12MemoryAccessELb0ELb0ENS_11MSSAHelpers12AllAccessTagELb0EvEELb0ELb0EEE(ptr noundef nonnull align 8 dereferenceable(325) %0, ptr noundef %1, ptr noundef %2, ptr %3) local_unnamed_addr #0 align 2 {
  tail call void @_ZN4llvm9MemorySSA15removeFromListsEPNS_12MemoryAccessEb(ptr noundef nonnull align 8 dereferenceable(325) %0, ptr noundef %1, i1 noundef zeroext false)
  %5 = load i8, ptr %1, align 8
  %.not.i = icmp eq i8 %5, 27
  br i1 %.not.i, label %6, label %_ZN4llvm9MemorySSA16prepareForMoveToEPNS_12MemoryAccessEPNS_10BasicBlockE.exit

6:                                                ; preds = %4
  %7 = getelementptr inbounds nuw i8, ptr %1, i64 84
  store i32 -1, ptr %7, align 4
  %8 = getelementptr inbounds i8, ptr %1, i64 -32
  %9 = load ptr, ptr %8, align 8
  %.not.i.i.i.i.i = icmp eq ptr %9, null
  br i1 %.not.i.i.i.i.i, label %_ZN4llvm9MemoryDef14resetOptimizedEv.exit.i, label %10

10:                                               ; preds = %6
  %11 = getelementptr inbounds i8, ptr %1, i64 -24
  %12 = load ptr, ptr %11, align 8
  %13 = getelementptr inbounds i8, ptr %1, i64 -16
  %14 = load ptr, ptr %13, align 8
  store ptr %12, ptr %14, align 8
  %.not.i.i.i.i.i.i = icmp eq ptr %12, null
  br i1 %.not.i.i.i.i.i.i, label %_ZN4llvm9MemoryDef14resetOptimizedEv.exit.i, label %15

15:                                               ; preds = %10
  %16 = load ptr, ptr %13, align 8
  %17 = getelementptr inbounds nuw i8, ptr %12, i64 16
  store ptr %16, ptr %17, align 8
  br label %_ZN4llvm9MemoryDef14resetOptimizedEv.exit.i

_ZN4llvm9MemoryDef14resetOptimizedEv.exit.i:      ; preds = %15, %10, %6
  store ptr null, ptr %8, align 8
  br label %_ZN4llvm9MemorySSA16prepareForMoveToEPNS_12MemoryAccessEPNS_10BasicBlockE.exit

_ZN4llvm9MemorySSA16prepareForMoveToEPNS_12MemoryAccessEPNS_10BasicBlockE.exit: ; preds = %4, %_ZN4llvm9MemoryDef14resetOptimizedEv.exit.i
  %18 = getelementptr inbounds nuw i8, ptr %1, i64 64
  store ptr %2, ptr %18, align 8
  tail call void @_ZN4llvm9MemorySSA21insertIntoListsBeforeEPNS_12MemoryAccessEPKNS_10BasicBlockENS_14ilist_iteratorINS_12ilist_detail12node_optionsIS1_Lb0ELb0ENS_11MSSAHelpers12AllAccessTagELb0EvEELb0ELb0EEE(ptr noundef nonnull align 8 dereferenceable(325) %0, ptr noundef nonnull %1, ptr noundef %2, ptr %3)
  ret void
}